target datalayout = "e-m:e-p270:32:32-p271:32:32-p272:64:64-i64:64-i128:128-f80:128-n8:16:32:64-S128"
target triple = "x86_64-pc-linux-gnu"

%struct.AVProbeData = type { ptr, ptr, i32, ptr }
%struct.AVChannelLayout = type { i32, i32, %union.anon.0, ptr }
%union.anon.0 = type { i64 }
%struct.AVFormatContext = type { ptr, ptr, ptr, ptr, ptr, i32, i32, ptr, i32, ptr, i32, ptr, ptr, i64, i64, i64, i32, i32, i32, i64, i64, ptr, i32, i32, ptr, i32, i32, i32, i32, ptr, i64, i32, i32, %struct.AVIOInterruptCB, i32, i32, i32, i32, i64, i32, i32, i32, i32, i32, i32, i32, i32, i32, i32, i32, i32, i64, i32, i32, i32, i32, i32, ptr, ptr, ptr, ptr, i32, ptr, ptr, ptr, ptr, i32, ptr, ptr, i64, ptr, ptr, ptr, i64 }
%struct.AVIOInterruptCB = type { ptr, ptr }
%struct.AVStream = type { ptr, i32, i32, ptr, ptr, %struct.AVRational, i64, i64, i64, i32, i32, %struct.AVRational, ptr, %struct.AVRational, %struct.AVPacket, i32, %struct.AVRational, i32 }
%struct.AVPacket = type { ptr, i64, i64, ptr, i32, i32, i32, ptr, i32, i64, i64, ptr, ptr, %struct.AVRational }
%struct.AVRational = type { i32, i32 }
%struct.AVCodecParameters = type { i32, i32, i32, ptr, i32, ptr, i32, i32, i64, i32, i32, i32, i32, i32, i32, %struct.AVRational, %struct.AVRational, i32, i32, i32, i32, i32, i32, i32, %struct.AVChannelLayout, i32, i32, i32, i32, i32, i32 }
%struct.FFStream = type { %struct.AVStream, ptr, i32, ptr, i32, ptr, i32, %struct.anon.1, i32, i32, %struct.FFFrac, ptr, ptr, i32, i32, i64, i64, i32, i32, i32, i64, i64, i64, i32, i64, i64, i64, i32, i32, [17 x i64], [17 x i8], [17 x i64], i64, i8, i8, %struct.AVRational, %struct.AVProbeData, ptr, i64, i32, i32, i32, ptr, i32, i32, i64, i64, ptr, %struct.AVRational }
%struct.anon.1 = type { ptr, i32 }
%struct.FFFrac = type { i64, i64, i64 }

; Function Attrs: alwaysinline nounwind uwtable
define internal i64 @av_sat_add64_c(i64 noundef %0, i64 noundef %1) #10 {
  %3 = alloca i64, align 8
  %4 = alloca i64, align 8
  %5 = alloca i64, align 8
  store i64 %0, ptr %3, align 8, !tbaa !96
  store i64 %1, ptr %4, align 8, !tbaa !96
  call void @llvm.lifetime.start.p0(i64 8, ptr %5) #13
  %6 = load i64, ptr %3, align 8, !tbaa !96
  %7 = load i64, ptr %4, align 8, !tbaa !96
  %8 = call { i64, i1 } @llvm.sadd.with.overflow.i64(i64 %6, i64 %7)
  %9 = extractvalue { i64, i1 } %8, 1
  %10 = extractvalue { i64, i1 } %8, 0
  store i64 %10, ptr %5, align 8
  br i1 %9, label %13, label %11

11:                                               ; preds = %2
  %12 = load i64, ptr %5, align 8, !tbaa !96
  br label %17

13:                                               ; preds = %2
  %14 = load i64, ptr %5, align 8, !tbaa !96
  %15 = icmp slt i64 %14, 0
  %16 = select i1 %15, i64 9223372036854775807, i64 -9223372036854775808
  br label %17

17:                                               ; preds = %13, %11
  %18 = phi i64 [ %12, %11 ], [ %16, %13 ]
  call void @llvm.lifetime.end.p0(i64 8, ptr %5) #13
  ret i64 %18
}

; Function Attrs: alwaysinline nounwind uwtable
define internal ptr @ffstream(ptr noundef %0) #10 {
  %2 = alloca ptr, align 8
  store ptr %0, ptr %2, align 8, !tbaa !53
  %3 = load ptr, ptr %2, align 8, !tbaa !53
  ret ptr %3
}

; Function Attrs: nounwind uwtable
define internal i32 @sbg_read_packet(ptr noundef %0, ptr noundef %1) #1 {
  %3 = alloca i32, align 4
  %4 = alloca ptr, align 8
  %5 = alloca ptr, align 8
  %6 = alloca i64, align 8
  %7 = alloca i64, align 8
  %8 = alloca i32, align 4
  %9 = alloca i32, align 4
  store ptr %0, ptr %4, align 8, !tbaa !23
  store ptr %1, ptr %5, align 8, !tbaa !93
  call void @llvm.lifetime.start.p0(i64 8, ptr %6) #13
  call void @llvm.lifetime.start.p0(i64 8, ptr %7) #13
  call void @llvm.lifetime.start.p0(i64 4, ptr %8) #13
  %10 = load ptr, ptr %4, align 8, !tbaa !23
  %11 = getelementptr inbounds nuw %struct.AVFormatContext, ptr %10, i32 0, i32 7
  %12 = load ptr, ptr %11, align 8, !tbaa !95
  %13 = getelementptr inbounds ptr, ptr %12, i64 0
  %14 = load ptr, ptr %13, align 8, !tbaa !53
  %15 = call ptr @ffstream(ptr noundef %14)
  %16 = getelementptr inbounds nuw %struct.FFStream, ptr %15, i32 0, i32 46
  %17 = load i64, ptr %16, align 8, !tbaa !89
  store i64 %17, ptr %6, align 8, !tbaa !96
  %18 = load i64, ptr %6, align 8, !tbaa !96
  %19 = load ptr, ptr %4, align 8, !tbaa !23
  %20 = getelementptr inbounds nuw %struct.AVFormatContext, ptr %19, i32 0, i32 7
  %21 = load ptr, ptr %20, align 8, !tbaa !95
  %22 = getelementptr inbounds ptr, ptr %21, i64 0
  %23 = load ptr, ptr %22, align 8, !tbaa !53
  %24 = getelementptr inbounds nuw %struct.AVStream, ptr %23, i32 0, i32 3
  %25 = load ptr, ptr %24, align 8, !tbaa !57
  %26 = getelementptr inbounds nuw %struct.AVCodecParameters, ptr %25, i32 0, i32 27
  %27 = load i32, ptr %26, align 8, !tbaa !75
  %28 = sext i32 %27 to i64
  %29 = call i64 @av_sat_add64_c(i64 noundef %18, i64 noundef %28)
  store i64 %29, ptr %7, align 8, !tbaa !96
  %30 = load ptr, ptr %4, align 8, !tbaa !23
  %31 = getelementptr inbounds nuw %struct.AVFormatContext, ptr %30, i32 0, i32 7
  %32 = load ptr, ptr %31, align 8, !tbaa !95
  %33 = getelementptr inbounds ptr, ptr %32, i64 0
  %34 = load ptr, ptr %33, align 8, !tbaa !53
  %35 = getelementptr inbounds nuw %struct.AVStream, ptr %34, i32 0, i32 7
  %36 = load i64, ptr %35, align 8, !tbaa !88
  %37 = icmp ne i64 %36, -9223372036854775808
  br i1 %37, label %38, label %76

38:                                               ; preds = %2
  %39 = load ptr, ptr %4, align 8, !tbaa !23
  %40 = getelementptr inbounds nuw %struct.AVFormatContext, ptr %39, i32 0, i32 7
  %41 = load ptr, ptr %40, align 8, !tbaa !95
  %42 = getelementptr inbounds ptr, ptr %41, i64 0
  %43 = load ptr, ptr %42, align 8, !tbaa !53
  %44 = getelementptr inbounds nuw %struct.AVStream, ptr %43, i32 0, i32 6
  %45 = load i64, ptr %44, align 8, !tbaa !87
  %46 = load ptr, ptr %4, align 8, !tbaa !23
  %47 = getelementptr inbounds nuw %struct.AVFormatContext, ptr %46, i32 0, i32 7
  %48 = load ptr, ptr %47, align 8, !tbaa !95
  %49 = getelementptr inbounds ptr, ptr %48, i64 0
  %50 = load ptr, ptr %49, align 8, !tbaa !53
  %51 = getelementptr inbounds nuw %struct.AVStream, ptr %50, i32 0, i32 7
  %52 = load i64, ptr %51, align 8, !tbaa !88
  %53 = add nsw i64 %45, %52
  %54 = load i64, ptr %7, align 8, !tbaa !96
  %55 = icmp sgt i64 %53, %54
  br i1 %55, label %56, label %58

56:                                               ; preds = %38
  %57 = load i64, ptr %7, align 8, !tbaa !96
  br label %74

58:                                               ; preds = %38
  %59 = load ptr, ptr %4, align 8, !tbaa !23
  %60 = getelementptr inbounds nuw %struct.AVFormatContext, ptr %59, i32 0, i32 7
  %61 = load ptr, ptr %60, align 8, !tbaa !95
  %62 = getelementptr inbounds ptr, ptr %61, i64 0
  %63 = load ptr, ptr %62, align 8, !tbaa !53
  %64 = getelementptr inbounds nuw %struct.AVStream, ptr %63, i32 0, i32 6
  %65 = load i64, ptr %64, align 8, !tbaa !87
  %66 = load ptr, ptr %4, align 8, !tbaa !23
  %67 = getelementptr inbounds nuw %struct.AVFormatContext, ptr %66, i32 0, i32 7
  %68 = load ptr, ptr %67, align 8, !tbaa !95
  %69 = getelementptr inbounds ptr, ptr %68, i64 0
  %70 = load ptr, ptr %69, align 8, !tbaa !53
  %71 = getelementptr inbounds nuw %struct.AVStream, ptr %70, i32 0, i32 7
  %72 = load i64, ptr %71, align 8, !tbaa !88
  %73 = add nsw i64 %65, %72
  br label %74

74:                                               ; preds = %58, %56
  %75 = phi i64 [ %57, %56 ], [ %73, %58 ]
  store i64 %75, ptr %7, align 8, !tbaa !96
  br label %76

76:                                               ; preds = %74, %2
  %77 = load i64, ptr %7, align 8, !tbaa !96
  %78 = load i64, ptr %6, align 8, !tbaa !96
  %79 = icmp sle i64 %77, %78
  br i1 %79, label %80, label %81

80:                                               ; preds = %76
  store i32 -541478725, ptr %3, align 4
  store i32 1, ptr %9, align 4
  br label %114

81:                                               ; preds = %76
  %82 = load ptr, ptr %5, align 8, !tbaa !93
  %83 = call i32 @av_new_packet(ptr noundef %82, i32 noundef 12)
  store i32 %83, ptr %8, align 4, !tbaa !14
  %84 = icmp slt i32 %83, 0
  br i1 %84, label %85, label %87

85:                                               ; preds = %81
  %86 = load i32, ptr %8, align 4, !tbaa !14
  store i32 %86, ptr %3, align 4
  store i32 1, ptr %9, align 4
  br label %114

87:                                               ; preds = %81
  %88 = load i64, ptr %6, align 8, !tbaa !96
  %89 = load ptr, ptr %5, align 8, !tbaa !93
  %90 = getelementptr inbounds nuw %struct.AVPacket, ptr %89, i32 0, i32 1
  store i64 %88, ptr %90, align 8, !tbaa !97
  %91 = load ptr, ptr %5, align 8, !tbaa !93
  %92 = getelementptr inbounds nuw %struct.AVPacket, ptr %91, i32 0, i32 2
  store i64 %88, ptr %92, align 8, !tbaa !98
  %93 = load i64, ptr %7, align 8, !tbaa !96
  %94 = load i64, ptr %6, align 8, !tbaa !96
  %95 = sub nsw i64 %93, %94
  %96 = load ptr, ptr %5, align 8, !tbaa !93
  %97 = getelementptr inbounds nuw %struct.AVPacket, ptr %96, i32 0, i32 9
  store i64 %95, ptr %97, align 8, !tbaa !99
  %98 = load i64, ptr %6, align 8, !tbaa !96
  %99 = load ptr, ptr %5, align 8, !tbaa !93
  %100 = getelementptr inbounds nuw %struct.AVPacket, ptr %99, i32 0, i32 3
  %101 = load ptr, ptr %100, align 8, !tbaa !100
  %102 = getelementptr inbounds i8, ptr %101, i64 0
  store i64 %98, ptr %102, align 1, !tbaa !70
  %103 = load ptr, ptr %5, align 8, !tbaa !93
  %104 = getelementptr inbounds nuw %struct.AVPacket, ptr %103, i32 0, i32 9
  %105 = load i64, ptr %104, align 8, !tbaa !99
  %106 = trunc i64 %105 to i32
  %107 = load ptr, ptr %5, align 8, !tbaa !93
  %108 = getelementptr inbounds nuw %struct.AVPacket, ptr %107, i32 0, i32 3
  %109 = load ptr, ptr %108, align 8, !tbaa !100
  %110 = getelementptr inbounds i8, ptr %109, i64 8
  store i32 %106, ptr %110, align 1, !tbaa !70
  %111 = load ptr, ptr %5, align 8, !tbaa !93
  %112 = getelementptr inbounds nuw %struct.AVPacket, ptr %111, i32 0, i32 4
  %113 = load i32, ptr %112, align 8, !tbaa !101
  store i32 %113, ptr %3, align 4
  store i32 1, ptr %9, align 4
  br label %114

114:                                              ; preds = %87, %85, %80
  call void @llvm.lifetime.end.p0(i64 4, ptr %8) #13
  call void @llvm.lifetime.end.p0(i64 8, ptr %7) #13
  call void @llvm.lifetime.end.p0(i64 8, ptr %6) #13
  %115 = load i32, ptr %3, align 4
  ret i32 %115
}