; Function Attrs: nounwind uwtable
define internal i32 @sbg_read_packet(ptr noundef readonly captures(none) %0, ptr noundef %1) #1 {
  %3 = getelementptr inbounds nuw i8, ptr %0, i64 48
  %4 = load ptr, ptr %3, align 8, !tbaa !147
  %5 = load ptr, ptr %4, align 8, !tbaa !148
  %6 = getelementptr inbounds nuw i8, ptr %5, i64 840
  %7 = load i64, ptr %6, align 8, !tbaa !132
  %8 = getelementptr inbounds nuw i8, ptr %5, i64 16
  %9 = load ptr, ptr %8, align 8, !tbaa !104
  %10 = getelementptr inbounds nuw i8, ptr %9, i64 160
  %11 = load i32, ptr %10, align 8, !tbaa !117
  %12 = sext i32 %11 to i64
  %13 = tail call { i64, i1 } @llvm.sadd.with.overflow.i64(i64 %7, i64 %12)
  %14 = extractvalue { i64, i1 } %13, 1
  %15 = extractvalue { i64, i1 } %13, 0
  %16 = icmp slt i64 %15, 0
  %17 = select i1 %16, i64 9223372036854775807, i64 -9223372036854775808
  %18 = select i1 %14, i64 %17, i64 %15
  %19 = getelementptr inbounds nuw i8, ptr %5, i64 48
  %20 = load i64, ptr %19, align 8, !tbaa !131
  %.not = icmp eq i64 %20, -9223372036854775808
  br i1 %.not, label %25, label %21

21:                                               ; preds = %2
  %22 = getelementptr inbounds nuw i8, ptr %5, i64 40
  %23 = load i64, ptr %22, align 8, !tbaa !130
  %24 = add nsw i64 %23, %20
  %. = tail call i64 @llvm.smin.i64(i64 %24, i64 %18)
  br label %25

25:                                               ; preds = %21, %2
  %.025 = phi i64 [ %., %21 ], [ %18, %2 ]
  %.not31 = icmp sgt i64 %.025, %7
  br i1 %.not31, label %26, label %42

26:                                               ; preds = %25
  %27 = tail call i32 @av_new_packet(ptr noundef %1, i32 noundef 12) #16
  %28 = icmp slt i32 %27, 0
  br i1 %28, label %42, label %29

29:                                               ; preds = %26
  %30 = getelementptr inbounds nuw i8, ptr %1, i64 8
  store i64 %7, ptr %30, align 8, !tbaa !150
  %31 = getelementptr inbounds nuw i8, ptr %1, i64 16
  store i64 %7, ptr %31, align 8, !tbaa !151
  %32 = sub nsw i64 %.025, %7
  %33 = getelementptr inbounds nuw i8, ptr %1, i64 64
  store i64 %32, ptr %33, align 8, !tbaa !152
  %34 = getelementptr inbounds nuw i8, ptr %1, i64 24
  %35 = load ptr, ptr %34, align 8, !tbaa !153
  store i64 %7, ptr %35, align 1, !tbaa !79
  %36 = load i64, ptr %33, align 8, !tbaa !152
  %37 = trunc i64 %36 to i32
  %38 = load ptr, ptr %34, align 8, !tbaa !153
  %39 = getelementptr inbounds nuw i8, ptr %38, i64 8
  store i32 %37, ptr %39, align 1, !tbaa !79
  %40 = getelementptr inbounds nuw i8, ptr %1, i64 32
  %41 = load i32, ptr %40, align 8, !tbaa !154
  br label %42

42:                                               ; preds = %26, %25, %29
  %.0 = phi i32 [ %41, %29 ], [ -541478725, %25 ], [ %27, %26 ]
  ret i32 %.0
}